; ModuleID = '60/674.c'
source_filename = "60/674.c"
target datalayout = "e-m:e-p270:32:32-p271:32:32-p272:64:64-i64:64-f80:128-n8:16:32:64-S128"
target triple = "x86_64-pc-linux-gnu"

@.str = private unnamed_addr constant [3 x i8] c"%d\00", align 1
@.str.1 = private unnamed_addr constant [7 x i8] c"%d %d\0A\00", align 1
@.str.2 = private unnamed_addr constant [6 x i8] c"empty\00", align 1

; Function Attrs: noinline nounwind uwtable
define dso_local i32 @main() #0 {
  %1 = alloca i32, align 4
  %2 = alloca i32, align 4
  %3 = alloca i32, align 4
  %4 = alloca i32, align 4
  %5 = alloca i32, align 4
  %6 = alloca i32, align 4
  %7 = alloca i32, align 4
  %8 = alloca i32, align 4
  %9 = alloca [10000 x i32], align 16
  store i32 0, i32* %1, align 4
  store i32 0, i32* %5, align 4
  store i32 0, i32* %7, align 4
  store i32 0, i32* %8, align 4
  %10 = call i32 (i8*, ...) @__isoc99_scanf(i8* getelementptr inbounds ([3 x i8], [3 x i8]* @.str, i64 0, i64 0), i32* %2)
  store i32 3, i32* %3, align 4
  br label %11

11:                                               ; preds = %48, %0
  %12 = load i32, i32* %3, align 4
  %13 = load i32, i32* %2, align 4
  %14 = icmp sle i32 %12, %13
  br i1 %14, label %15, label %51

15:                                               ; preds = %11
  store i32 2, i32* %4, align 4
  br label %16

16:                                               ; preds = %31, %15
  %17 = load i32, i32* %4, align 4
  %18 = load i32, i32* %3, align 4
  %19 = sdiv i32 %18, 2
  %20 = add nsw i32 %19, 1
  %21 = icmp sle i32 %17, %20
  br i1 %21, label %22, label %34

22:                                               ; preds = %16
  %23 = load i32, i32* %3, align 4
  %24 = load i32, i32* %4, align 4
  %25 = srem i32 %23, %24
  %26 = icmp ne i32 %25, 0
  br i1 %26, label %27, label %30

27:                                               ; preds = %22
  %28 = load i32, i32* %8, align 4
  %29 = add nsw i32 %28, 1
  store i32 %29, i32* %8, align 4
  br label %30

30:                                               ; preds = %27, %22
  br label %31

31:                                               ; preds = %30
  %32 = load i32, i32* %4, align 4
  %33 = add nsw i32 %32, 1
  store i32 %33, i32* %4, align 4
  br label %16

34:                                               ; preds = %16
  %35 = load i32, i32* %8, align 4
  %36 = load i32, i32* %3, align 4
  %37 = sdiv i32 %36, 2
  %38 = icmp eq i32 %35, %37
  br i1 %38, label %39, label %46

39:                                               ; preds = %34
  %40 = load i32, i32* %3, align 4
  %41 = load i32, i32* %5, align 4
  %42 = sext i32 %41 to i64
  %43 = getelementptr inbounds [10000 x i32], [10000 x i32]* %9, i64 0, i64 %42
  store i32 %40, i32* %43, align 4
  %44 = load i32, i32* %5, align 4
  %45 = add nsw i32 %44, 1
  store i32 %45, i32* %5, align 4
  store i32 0, i32* %8, align 4
  br label %47

46:                                               ; preds = %34
  store i32 0, i32* %8, align 4
  br label %47

47:                                               ; preds = %46, %39
  br label %48

48:                                               ; preds = %47
  %49 = load i32, i32* %3, align 4
  %50 = add nsw i32 %49, 1
  store i32 %50, i32* %3, align 4
  br label %11

51:                                               ; preds = %11
  store i32 0, i32* %6, align 4
  br label %52

52:                                               ; preds = %83, %51
  %53 = load i32, i32* %6, align 4
  %54 = load i32, i32* %5, align 4
  %55 = sub nsw i32 %54, 1
  %56 = icmp sle i32 %53, %55
  br i1 %56, label %57, label %86

57:                                               ; preds = %52
  %58 = load i32, i32* %6, align 4
  %59 = add nsw i32 %58, 1
  %60 = sext i32 %59 to i64
  %61 = getelementptr inbounds [10000 x i32], [10000 x i32]* %9, i64 0, i64 %60
  %62 = load i32, i32* %61, align 4
  %63 = load i32, i32* %6, align 4
  %64 = sext i32 %63 to i64
  %65 = getelementptr inbounds [10000 x i32], [10000 x i32]* %9, i64 0, i64 %64
  %66 = load i32, i32* %65, align 4
  %67 = add nsw i32 %66, 2
  %68 = icmp eq i32 %62, %67
  br i1 %68, label %69, label %82

69:                                               ; preds = %57
  %70 = load i32, i32* %6, align 4
  %71 = sext i32 %70 to i64
  %72 = getelementptr inbounds [10000 x i32], [10000 x i32]* %9, i64 0, i64 %71
  %73 = load i32, i32* %72, align 4
  %74 = load i32, i32* %6, align 4
  %75 = add nsw i32 %74, 1
  %76 = sext i32 %75 to i64
  %77 = getelementptr inbounds [10000 x i32], [10000 x i32]* %9, i64 0, i64 %76
  %78 = load i32, i32* %77, align 4
  %79 = call i32 (i8*, ...) @printf(i8* getelementptr inbounds ([7 x i8], [7 x i8]* @.str.1, i64 0, i64 0), i32 %73, i32 %78)
  %80 = load i32, i32* %7, align 4
  %81 = add nsw i32 %80, 1
  store i32 %81, i32* %7, align 4
  br label %82

82:                                               ; preds = %69, %57
  br label %83

83:                                               ; preds = %82
  %84 = load i32, i32* %6, align 4
  %85 = add nsw i32 %84, 1
  store i32 %85, i32* %6, align 4
  br label %52

86:                                               ; preds = %52
  %87 = load i32, i32* %7, align 4
  %88 = icmp eq i32 %87, 0
  br i1 %88, label %89, label %91

89:                                               ; preds = %86
  %90 = call i32 (i8*, ...) @printf(i8* getelementptr inbounds ([6 x i8], [6 x i8]* @.str.2, i64 0, i64 0))
  br label %91

91:                                               ; preds = %89, %86
  %92 = load i32, i32* %1, align 4
  ret i32 %92
}

declare dso_local i32 @__isoc99_scanf(i8*, ...) #1

declare dso_local i32 @printf(i8*, ...) #1


!llvm.module.flags = !{!0}
!llvm.ident = !{!1}

!0 = !{i32 1, !"wchar_size", i32 4}
!1 = !{!"clang version 10.0.0-4ubuntu1 "}
